target datalayout = "e-m:e-p270:32:32-p271:32:32-p272:64:64-i64:64-i128:128-f80:128-n8:16:32:64-S128"
target triple = "x86_64-pc-linux-gnu"

%struct.AVPacket = type { ptr, i64, i64, ptr, i32, i32, i32, ptr, i32, i64, i64, ptr, ptr, %struct.AVRational }
%struct.AVRational = type { i32, i32 }
%struct.AVStream = type { ptr, i32, i32, ptr, ptr, %struct.AVRational, i64, i64, i64, i32, i32, %struct.AVRational, ptr, %struct.AVRational, %struct.AVPacket, i32, %struct.AVRational, i32 }
%struct.AVFormatContext = type { ptr, ptr, ptr, ptr, ptr, i32, i32, ptr, i32, ptr, i32, ptr, ptr, i64, i64, i64, i32, i32, i32, i64, i64, ptr, i32, i32, ptr, i32, i32, i32, i32, ptr, i64, i32, i32, %struct.AVIOInterruptCB, i32, i32, i32, i32, i64, i32, i32, i32, i32, i32, i32, i32, i32, i32, i32, i32, i32, i64, i32, i32, i32, i32, i32, ptr, ptr, ptr, ptr, i32, ptr, ptr, ptr, ptr, i32, ptr, ptr, i64, ptr, ptr, ptr, i64 }
%struct.AVIOInterruptCB = type { ptr, ptr }
%struct.MpegTSWrite = type { ptr, %struct.MpegTSSection, %struct.MpegTSSection, %struct.MpegTSSection, ptr, ptr, i64, i64, i64, i32, i64, i32, i64, i32, i32, i64, i32, i32, i32, i32, i32, i32, i32, i32, i32, i32, i32, i32, i32, i32, i32, i64, i64, i64, i64, i64, i64, [256 x i8], i32 }
%struct.MpegTSSection = type { i32, i32, i32, ptr, ptr }
%struct.MpegTSWriteStream = type { i32, i32, i32, i32, i32, i32, i64, i64, i32, ptr, ptr, i32, i64, i64, i32, i32, ptr }

; Function Attrs: alwaysinline nounwind willreturn memory(none) uwtable
define internal i32 @av_bswap32(i32 noundef %0) #1 {
  %2 = alloca i32, align 4
  store i32 %0, ptr %2, align 4, !tbaa !59
  %3 = load i32, ptr %2, align 4, !tbaa !59
  %4 = shl i32 %3, 8
  %5 = and i32 %4, 65280
  %6 = load i32, ptr %2, align 4, !tbaa !59
  %7 = lshr i32 %6, 8
  %8 = and i32 %7, 255
  %9 = or i32 %5, %8
  %10 = shl i32 %9, 16
  %11 = load i32, ptr %2, align 4, !tbaa !59
  %12 = lshr i32 %11, 16
  %13 = shl i32 %12, 8
  %14 = and i32 %13, 65280
  %15 = load i32, ptr %2, align 4, !tbaa !59
  %16 = lshr i32 %15, 16
  %17 = lshr i32 %16, 8
  %18 = and i32 %17, 255
  %19 = or i32 %14, %18
  %20 = or i32 %10, %19
  ret i32 %20
}

; Function Attrs: nounwind uwtable
define internal i64 @get_pcr(ptr noundef %0) #0 {
  %2 = alloca ptr, align 8
  store ptr %0, ptr %2, align 8, !tbaa !42
  %3 = load ptr, ptr %2, align 8, !tbaa !42
  %4 = getelementptr inbounds nuw %struct.MpegTSWrite, ptr %3, i32 0, i32 15
  %5 = load i64, ptr %4, align 8, !tbaa !195
  %6 = add nsw i64 %5, 11
  %7 = load ptr, ptr %2, align 8, !tbaa !42
  %8 = getelementptr inbounds nuw %struct.MpegTSWrite, ptr %7, i32 0, i32 13
  %9 = load i32, ptr %8, align 8, !tbaa !142
  %10 = sext i32 %9 to i64
  %11 = call i64 @av_rescale(i64 noundef %6, i64 noundef 216000000, i64 noundef %10) #12
  %12 = load ptr, ptr %2, align 8, !tbaa !42
  %13 = getelementptr inbounds nuw %struct.MpegTSWrite, ptr %12, i32 0, i32 10
  %14 = load i64, ptr %13, align 8, !tbaa !128
  %15 = add nsw i64 %11, %14
  ret i64 %15
}

; Function Attrs: nounwind uwtable
define internal void @write_packet(ptr noundef %0, ptr noundef %1) #0 {
  %3 = alloca ptr, align 8
  %4 = alloca ptr, align 8
  %5 = alloca ptr, align 8
  %6 = alloca i64, align 8
  %7 = alloca i32, align 4
  store ptr %0, ptr %3, align 8, !tbaa !4
  store ptr %1, ptr %4, align 8, !tbaa !13
  call void @llvm.lifetime.start.p0(i64 8, ptr %5) #13
  %8 = load ptr, ptr %3, align 8, !tbaa !4
  %9 = getelementptr inbounds nuw %struct.AVFormatContext, ptr %8, i32 0, i32 3
  %10 = load ptr, ptr %9, align 8, !tbaa !41
  store ptr %10, ptr %5, align 8, !tbaa !42
  %11 = load ptr, ptr %5, align 8, !tbaa !42
  %12 = getelementptr inbounds nuw %struct.MpegTSWrite, ptr %11, i32 0, i32 22
  %13 = load i32, ptr %12, align 8, !tbaa !44
  %14 = icmp ne i32 %13, 0
  br i1 %14, label %15, label %28

15:                                               ; preds = %2
  call void @llvm.lifetime.start.p0(i64 8, ptr %6) #13
  %16 = load ptr, ptr %3, align 8, !tbaa !4
  %17 = getelementptr inbounds nuw %struct.AVFormatContext, ptr %16, i32 0, i32 3
  %18 = load ptr, ptr %17, align 8, !tbaa !41
  %19 = call i64 @get_pcr(ptr noundef %18)
  store i64 %19, ptr %6, align 8, !tbaa !160
  call void @llvm.lifetime.start.p0(i64 4, ptr %7) #13
  %20 = load i64, ptr %6, align 8, !tbaa !160
  %21 = srem i64 %20, 1073741823
  %22 = trunc i64 %21 to i32
  store i32 %22, ptr %7, align 4, !tbaa !59
  %23 = load i32, ptr %7, align 4, !tbaa !23
  %24 = call i32 @av_bswap32(i32 noundef %23) #12
  store i32 %24, ptr %7, align 4, !tbaa !59
  %25 = load ptr, ptr %3, align 8, !tbaa !4
  %26 = getelementptr inbounds nuw %struct.AVFormatContext, ptr %25, i32 0, i32 4
  %27 = load ptr, ptr %26, align 8, !tbaa !29
  call void @avio_write(ptr noundef %27, ptr noundef %7, i32 noundef 4)
  call void @llvm.lifetime.end.p0(i64 4, ptr %7) #13
  call void @llvm.lifetime.end.p0(i64 8, ptr %6) #13
  br label %28

28:                                               ; preds = %15, %2
  %29 = load ptr, ptr %3, align 8, !tbaa !4
  %30 = getelementptr inbounds nuw %struct.AVFormatContext, ptr %29, i32 0, i32 4
  %31 = load ptr, ptr %30, align 8, !tbaa !29
  %32 = load ptr, ptr %4, align 8, !tbaa !13
  call void @avio_write(ptr noundef %31, ptr noundef %32, i32 noundef 188)
  %33 = load ptr, ptr %5, align 8, !tbaa !42
  %34 = getelementptr inbounds nuw %struct.MpegTSWrite, ptr %33, i32 0, i32 15
  %35 = load i64, ptr %34, align 8, !tbaa !195
  %36 = add nsw i64 %35, 188
  store i64 %36, ptr %34, align 8, !tbaa !195
  call void @llvm.lifetime.end.p0(i64 8, ptr %5) #13
  ret void
}

; Function Attrs: nounwind uwtable
define internal void @mpegts_insert_null_packet(ptr noundef %0) #0 {
  %2 = alloca ptr, align 8
  %3 = alloca ptr, align 8
  %4 = alloca [188 x i8], align 16
  store ptr %0, ptr %2, align 8, !tbaa !4
  call void @llvm.lifetime.start.p0(i64 8, ptr %3) #13
  call void @llvm.lifetime.start.p0(i64 188, ptr %4) #13
  %5 = getelementptr inbounds [188 x i8], ptr %4, i64 0, i64 0
  store ptr %5, ptr %3, align 8, !tbaa !13
  %6 = load ptr, ptr %3, align 8, !tbaa !13
  %7 = getelementptr inbounds nuw i8, ptr %6, i32 1
  store ptr %7, ptr %3, align 8, !tbaa !13
  store i8 71, ptr %6, align 1, !tbaa !23
  %8 = load ptr, ptr %3, align 8, !tbaa !13
  %9 = getelementptr inbounds nuw i8, ptr %8, i32 1
  store ptr %9, ptr %3, align 8, !tbaa !13
  store i8 31, ptr %8, align 1, !tbaa !23
  %10 = load ptr, ptr %3, align 8, !tbaa !13
  %11 = getelementptr inbounds nuw i8, ptr %10, i32 1
  store ptr %11, ptr %3, align 8, !tbaa !13
  store i8 -1, ptr %10, align 1, !tbaa !23
  %12 = load ptr, ptr %3, align 8, !tbaa !13
  %13 = getelementptr inbounds nuw i8, ptr %12, i32 1
  store ptr %13, ptr %3, align 8, !tbaa !13
  store i8 16, ptr %12, align 1, !tbaa !23
  %14 = load ptr, ptr %3, align 8, !tbaa !13
  %15 = load ptr, ptr %3, align 8, !tbaa !13
  %16 = getelementptr inbounds [188 x i8], ptr %4, i64 0, i64 0
  %17 = ptrtoint ptr %15 to i64
  %18 = ptrtoint ptr %16 to i64
  %19 = sub i64 %17, %18
  %20 = sub nsw i64 188, %19
  call void @llvm.memset.p0.i64(ptr align 1 %14, i8 -1, i64 %20, i1 false)
  %21 = load ptr, ptr %2, align 8, !tbaa !4
  %22 = getelementptr inbounds [188 x i8], ptr %4, i64 0, i64 0
  call void @write_packet(ptr noundef %21, ptr noundef %22)
  call void @llvm.lifetime.end.p0(i64 188, ptr %4) #13
  call void @llvm.lifetime.end.p0(i64 8, ptr %3) #13
  ret void
}

; Function Attrs: alwaysinline nounwind uwtable
define internal i64 @avio_tell(ptr noundef %0) #4 {
  %2 = alloca ptr, align 8
  store ptr %0, ptr %2, align 8, !tbaa !194
  %3 = load ptr, ptr %2, align 8, !tbaa !194
  %4 = call i64 @avio_seek(ptr noundef %3, i64 noundef 0, i32 noundef 1)
  ret i64 %4
}

; Function Attrs: nounwind uwtable
define internal void @mpegts_write_flush(ptr noundef %0) #0 {
  %2 = alloca ptr, align 8
  %3 = alloca ptr, align 8
  %4 = alloca i32, align 4
  %5 = alloca ptr, align 8
  %6 = alloca ptr, align 8
  %7 = alloca i32, align 4
  store ptr %0, ptr %2, align 8, !tbaa !4
  call void @llvm.lifetime.start.p0(i64 8, ptr %3) #13
  %8 = load ptr, ptr %2, align 8, !tbaa !4
  %9 = getelementptr inbounds nuw %struct.AVFormatContext, ptr %8, i32 0, i32 3
  %10 = load ptr, ptr %9, align 8, !tbaa !41
  store ptr %10, ptr %3, align 8, !tbaa !42
  call void @llvm.lifetime.start.p0(i64 4, ptr %4) #13
  store i32 0, ptr %4, align 4, !tbaa !59
  br label %11

11:                                               ; preds = %56, %1
  %12 = load i32, ptr %4, align 4, !tbaa !59
  %13 = load ptr, ptr %2, align 8, !tbaa !4
  %14 = getelementptr inbounds nuw %struct.AVFormatContext, ptr %13, i32 0, i32 6
  %15 = load i32, ptr %14, align 4, !tbaa !90
  %16 = icmp ult i32 %12, %15
  br i1 %16, label %17, label %59

17:                                               ; preds = %11
  call void @llvm.lifetime.start.p0(i64 8, ptr %5) #13
  %18 = load ptr, ptr %2, align 8, !tbaa !4
  %19 = getelementptr inbounds nuw %struct.AVFormatContext, ptr %18, i32 0, i32 7
  %20 = load ptr, ptr %19, align 8, !tbaa !91
  %21 = load i32, ptr %4, align 4, !tbaa !59
  %22 = sext i32 %21 to i64
  %23 = getelementptr inbounds ptr, ptr %20, i64 %22
  %24 = load ptr, ptr %23, align 8, !tbaa !9
  store ptr %24, ptr %5, align 8, !tbaa !9
  call void @llvm.lifetime.start.p0(i64 8, ptr %6) #13
  %25 = load ptr, ptr %5, align 8, !tbaa !9
  %26 = getelementptr inbounds nuw %struct.AVStream, ptr %25, i32 0, i32 4
  %27 = load ptr, ptr %26, align 8, !tbaa !94
  store ptr %27, ptr %6, align 8, !tbaa !92
  %28 = load ptr, ptr %6, align 8, !tbaa !92
  %29 = getelementptr inbounds nuw %struct.MpegTSWriteStream, ptr %28, i32 0, i32 3
  %30 = load i32, ptr %29, align 4, !tbaa !154
  %31 = icmp sgt i32 %30, 0
  br i1 %31, label %32, label %55

32:                                               ; preds = %17
  %33 = load ptr, ptr %2, align 8, !tbaa !4
  %34 = load ptr, ptr %5, align 8, !tbaa !9
  %35 = load ptr, ptr %6, align 8, !tbaa !92
  %36 = getelementptr inbounds nuw %struct.MpegTSWriteStream, ptr %35, i32 0, i32 9
  %37 = load ptr, ptr %36, align 8, !tbaa !95
  %38 = load ptr, ptr %6, align 8, !tbaa !92
  %39 = getelementptr inbounds nuw %struct.MpegTSWriteStream, ptr %38, i32 0, i32 3
  %40 = load i32, ptr %39, align 4, !tbaa !154
  %41 = load ptr, ptr %6, align 8, !tbaa !92
  %42 = getelementptr inbounds nuw %struct.MpegTSWriteStream, ptr %41, i32 0, i32 6
  %43 = load i64, ptr %42, align 8, !tbaa !115
  %44 = load ptr, ptr %6, align 8, !tbaa !92
  %45 = getelementptr inbounds nuw %struct.MpegTSWriteStream, ptr %44, i32 0, i32 7
  %46 = load i64, ptr %45, align 8, !tbaa !116
  %47 = load ptr, ptr %6, align 8, !tbaa !92
  %48 = getelementptr inbounds nuw %struct.MpegTSWriteStream, ptr %47, i32 0, i32 8
  %49 = load i32, ptr %48, align 8, !tbaa !155
  %50 = and i32 %49, 1
  call void @mpegts_write_pes(ptr noundef %33, ptr noundef %34, ptr noundef %37, i32 noundef %40, i64 noundef %43, i64 noundef %46, i32 noundef %50, i32 noundef -1)
  %51 = load ptr, ptr %6, align 8, !tbaa !92
  %52 = getelementptr inbounds nuw %struct.MpegTSWriteStream, ptr %51, i32 0, i32 3
  store i32 0, ptr %52, align 4, !tbaa !154
  %53 = load ptr, ptr %6, align 8, !tbaa !92
  %54 = getelementptr inbounds nuw %struct.MpegTSWriteStream, ptr %53, i32 0, i32 14
  store i32 0, ptr %54, align 8, !tbaa !156
  br label %55

55:                                               ; preds = %32, %17
  call void @llvm.lifetime.end.p0(i64 8, ptr %6) #13
  call void @llvm.lifetime.end.p0(i64 8, ptr %5) #13
  br label %56

56:                                               ; preds = %55
  %57 = load i32, ptr %4, align 4, !tbaa !59
  %58 = add nsw i32 %57, 1
  store i32 %58, ptr %4, align 4, !tbaa !59
  br label %11, !llvm.loop !157

59:                                               ; preds = %11
  %60 = load ptr, ptr %3, align 8, !tbaa !42
  %61 = getelementptr inbounds nuw %struct.MpegTSWrite, ptr %60, i32 0, i32 22
  %62 = load i32, ptr %61, align 8, !tbaa !44
  %63 = icmp ne i32 %62, 0
  br i1 %63, label %64, label %79

64:                                               ; preds = %59
  call void @llvm.lifetime.start.p0(i64 4, ptr %7) #13
  %65 = load ptr, ptr %2, align 8, !tbaa !4
  %66 = getelementptr inbounds nuw %struct.AVFormatContext, ptr %65, i32 0, i32 4
  %67 = load ptr, ptr %66, align 8, !tbaa !29
  %68 = call i64 @avio_tell(ptr noundef %67)
  %69 = sdiv i64 %68, 192
  %70 = srem i64 %69, 32
  %71 = trunc i64 %70 to i32
  store i32 %71, ptr %7, align 4, !tbaa !59
  br label %72

72:                                               ; preds = %76, %64
  %73 = load i32, ptr %7, align 4, !tbaa !59
  %74 = add nsw i32 %73, 1
  store i32 %74, ptr %7, align 4, !tbaa !59
  %75 = icmp slt i32 %73, 32
  br i1 %75, label %76, label %78

76:                                               ; preds = %72
  %77 = load ptr, ptr %2, align 8, !tbaa !4
  call void @mpegts_insert_null_packet(ptr noundef %77)
  br label %72, !llvm.loop !158

78:                                               ; preds = %72
  call void @llvm.lifetime.end.p0(i64 4, ptr %7) #13
  br label %79

79:                                               ; preds = %78, %59
  call void @llvm.lifetime.end.p0(i64 4, ptr %4) #13
  call void @llvm.lifetime.end.p0(i64 8, ptr %3) #13
  ret void
}