; Function Attrs: nounwind uwtable
define internal fastcc void @mpegts_write_flush(ptr noundef %0) unnamed_addr #0 {
  %2 = alloca i32, align 4
  %3 = alloca [188 x i8], align 16
  %4 = getelementptr inbounds nuw i8, ptr %0, i64 24
  %5 = load ptr, ptr %4, align 8, !tbaa !38
  %6 = getelementptr inbounds nuw i8, ptr %0, i64 44
  %7 = load i32, ptr %6, align 4, !tbaa !134
  %.not26 = icmp eq i32 %7, 0
  br i1 %.not26, label %._crit_edge, label %.lr.ph

.lr.ph:                                           ; preds = %1
  %8 = getelementptr inbounds nuw i8, ptr %0, i64 48
  br label %9

9:                                                ; preds = %.lr.ph, %30
  %10 = phi i32 [ %7, %.lr.ph ], [ %31, %30 ]
  %indvars.iv = phi i64 [ 0, %.lr.ph ], [ %indvars.iv.next, %30 ]
  %11 = load ptr, ptr %8, align 8, !tbaa !22
  %12 = getelementptr inbounds nuw ptr, ptr %11, i64 %indvars.iv
  %13 = load ptr, ptr %12, align 8, !tbaa !35
  %14 = getelementptr inbounds nuw i8, ptr %13, i64 24
  %15 = load ptr, ptr %14, align 8, !tbaa !39
  %16 = getelementptr inbounds nuw i8, ptr %15, i64 12
  %17 = load i32, ptr %16, align 4, !tbaa !89
  %18 = icmp sgt i32 %17, 0
  br i1 %18, label %19, label %30

19:                                               ; preds = %9
  %20 = getelementptr inbounds nuw i8, ptr %15, i64 48
  %21 = load ptr, ptr %20, align 8, !tbaa !93
  %22 = getelementptr inbounds nuw i8, ptr %15, i64 24
  %23 = load i64, ptr %22, align 8, !tbaa !94
  %24 = getelementptr inbounds nuw i8, ptr %15, i64 32
  %25 = load i64, ptr %24, align 8, !tbaa !91
  %26 = getelementptr inbounds nuw i8, ptr %15, i64 40
  %27 = load i32, ptr %26, align 8, !tbaa !95
  %28 = and i32 %27, 1
  tail call fastcc void @mpegts_write_pes(ptr noundef nonnull %0, ptr noundef nonnull %13, ptr noundef %21, i32 noundef %17, i64 noundef %23, i64 noundef %25, i32 noundef %28, i32 noundef -1)
  store i32 0, ptr %16, align 4, !tbaa !89
  %29 = getelementptr inbounds nuw i8, ptr %15, i64 88
  store i32 0, ptr %29, align 8, !tbaa !92
  %.pre = load i32, ptr %6, align 4, !tbaa !134
  br label %30

30:                                               ; preds = %19, %9
  %31 = phi i32 [ %.pre, %19 ], [ %10, %9 ]
  %indvars.iv.next = add nuw nsw i64 %indvars.iv, 1
  %32 = zext i32 %31 to i64
  %33 = icmp samesign ult i64 %indvars.iv.next, %32
  br i1 %33, label %9, label %._crit_edge, !llvm.loop !184

._crit_edge:                                      ; preds = %30, %1
  %34 = getelementptr inbounds nuw i8, ptr %5, i64 216
  %35 = load i32, ptr %34, align 8, !tbaa !88
  %.not = icmp eq i32 %35, 0
  br i1 %.not, label %.loopexit, label %.lr.ph25

.lr.ph25:                                         ; preds = %._crit_edge
  %36 = getelementptr inbounds nuw i8, ptr %0, i64 32
  %37 = load ptr, ptr %36, align 8, !tbaa !66
  %38 = tail call i64 @avio_seek(ptr noundef %37, i64 noundef 0, i32 noundef 1) #12
  %39 = sdiv i64 %38, 192
  %40 = srem i64 %39, 32
  %41 = trunc nsw i64 %40 to i32
  %42 = getelementptr inbounds nuw i8, ptr %3, i64 1
  %43 = getelementptr inbounds nuw i8, ptr %3, i64 2
  %44 = getelementptr inbounds nuw i8, ptr %3, i64 3
  %45 = getelementptr inbounds nuw i8, ptr %3, i64 4
  br label %46

46:                                               ; preds = %.lr.ph25, %mpegts_insert_null_packet.exit
  %.023 = phi i32 [ %41, %.lr.ph25 ], [ %47, %mpegts_insert_null_packet.exit ]
  %47 = add nsw i32 %.023, 1
  call void @llvm.lifetime.start.p0(i64 188, ptr nonnull %3) #12
  store i8 71, ptr %3, align 16, !tbaa !21
  store i8 31, ptr %42, align 1, !tbaa !21
  store i8 -1, ptr %43, align 2, !tbaa !21
  store i8 16, ptr %44, align 1, !tbaa !21
  call void @llvm.memset.p0.i64(ptr noundef nonnull align 4 dereferenceable(184) %45, i8 -1, i64 184, i1 false)
  %48 = load ptr, ptr %4, align 8, !tbaa !38
  %49 = getelementptr inbounds nuw i8, ptr %48, i64 216
  %50 = load i32, ptr %49, align 8, !tbaa !88
  %.not.i.i = icmp eq i32 %50, 0
  br i1 %.not.i.i, label %mpegts_insert_null_packet.exit, label %51

51:                                               ; preds = %46
  %52 = getelementptr inbounds nuw i8, ptr %48, i64 184
  %53 = load i64, ptr %52, align 8, !tbaa !185
  %54 = add nsw i64 %53, 11
  %55 = getelementptr inbounds nuw i8, ptr %48, i64 176
  %56 = load i32, ptr %55, align 8, !tbaa !156
  %57 = sext i32 %56 to i64
  %58 = call i64 @av_rescale(i64 noundef %54, i64 noundef 216000000, i64 noundef %57) #13
  %59 = getelementptr inbounds nuw i8, ptr %48, i64 152
  %60 = load i64, ptr %59, align 8, !tbaa !48
  %61 = add nsw i64 %60, %58
  call void @llvm.lifetime.start.p0(i64 4, ptr nonnull %2) #12
  %62 = srem i64 %61, 1073741823
  %63 = trunc nsw i64 %62 to i32
  %64 = call i32 @llvm.bswap.i32(i32 %63)
  store i32 %64, ptr %2, align 4, !tbaa !58
  %65 = load ptr, ptr %36, align 8, !tbaa !66
  call void @avio_write(ptr noundef %65, ptr noundef nonnull %2, i32 noundef 4) #12
  call void @llvm.lifetime.end.p0(i64 4, ptr nonnull %2) #12
  br label %mpegts_insert_null_packet.exit

mpegts_insert_null_packet.exit:                   ; preds = %46, %51
  %66 = load ptr, ptr %36, align 8, !tbaa !66
  call void @avio_write(ptr noundef %66, ptr noundef nonnull %3, i32 noundef 188) #12
  %67 = getelementptr inbounds nuw i8, ptr %48, i64 184
  %68 = load i64, ptr %67, align 8, !tbaa !185
  %69 = add nsw i64 %68, 188
  store i64 %69, ptr %67, align 8, !tbaa !185
  call void @llvm.lifetime.end.p0(i64 188, ptr nonnull %3) #12
  %exitcond.not = icmp eq i32 %47, 32
  br i1 %exitcond.not, label %.loopexit, label %46, !llvm.loop !186

.loopexit:                                        ; preds = %mpegts_insert_null_packet.exit, %._crit_edge
  ret void
}